target datalayout = "e-m:e-p270:32:32-p271:32:32-p272:64:64-i64:64-i128:128-f80:128-n8:16:32:64-S128"
target triple = "x86_64-pc-linux-gnu"

%struct.packing_data = type { ptr, ptr, i32, i32, ptr, i32, ptr, ptr, ptr, ptr, %union.pthread_mutex_t, ptr, i32, i32, i64, i64, ptr, ptr, ptr }
%union.pthread_mutex_t = type { %struct.__pthread_mutex_s }
%struct.__pthread_mutex_s = type { i32, i32, i32, i32, i32, i16, i16, %struct.__pthread_internal_list }
%struct.__pthread_internal_list = type { ptr, ptr }
%struct.object_id = type { [32 x i8], i32 }
%struct.object = type { i32, %struct.object_id }
%struct.tag = type { %struct.object, ptr, ptr, i64 }

@to_pack = internal global %struct.packing_data zeroinitializer, align 8
@the_repository = external global ptr, align 8
@reuse_packfile_bitmap = internal global ptr null, align 8
@bitmap_git = internal global ptr null, align 8
@.str.205 = private unnamed_addr constant [45 x i8] c"unable to pack objects reachable from tag %s\00", align 1

; Function Attrs: nounwind uwtable
define internal void @add_tag_chain(ptr noundef %0) #0 {
  %2 = alloca ptr, align 8
  %3 = alloca ptr, align 8
  %4 = alloca i32, align 4
  store ptr %0, ptr %2, align 8, !tbaa !190
  call void @llvm.lifetime.start.p0(i64 8, ptr %3) #11
  %5 = load ptr, ptr %2, align 8, !tbaa !190
  %6 = call i32 @obj_is_packed(ptr noundef %5)
  %7 = icmp ne i32 %6, 0
  br i1 %7, label %8, label %9

8:                                                ; preds = %1
  store i32 1, ptr %4, align 4
  br label %47

9:                                                ; preds = %1
  %10 = load ptr, ptr @the_repository, align 8, !tbaa !11
  %11 = load ptr, ptr %2, align 8, !tbaa !190
  %12 = call ptr @lookup_tag(ptr noundef %10, ptr noundef %11)
  store ptr %12, ptr %3, align 8, !tbaa !285
  br label %13

13:                                               ; preds = %43, %9
  br label %14

14:                                               ; preds = %13
  %15 = load ptr, ptr %3, align 8, !tbaa !285
  %16 = icmp ne ptr %15, null
  br i1 %16, label %17, label %26

17:                                               ; preds = %14
  %18 = load ptr, ptr %3, align 8, !tbaa !285
  %19 = call i32 @parse_tag(ptr noundef %18)
  %20 = icmp ne i32 %19, 0
  br i1 %20, label %26, label %21

21:                                               ; preds = %17
  %22 = load ptr, ptr %3, align 8, !tbaa !285
  %23 = getelementptr inbounds nuw %struct.tag, ptr %22, i32 0, i32 1
  %24 = load ptr, ptr %23, align 8, !tbaa !287
  %25 = icmp ne ptr %24, null
  br i1 %25, label %30, label %26

26:                                               ; preds = %21, %17, %14
  %27 = call ptr @_(ptr noundef @.str.205)
  %28 = load ptr, ptr %2, align 8, !tbaa !190
  %29 = call ptr @oid_to_hex(ptr noundef %28)
  call void (ptr, ...) @die(ptr noundef %27, ptr noundef %29) #12
  unreachable

30:                                               ; preds = %21
  %31 = load ptr, ptr %3, align 8, !tbaa !285
  %32 = getelementptr inbounds nuw %struct.tag, ptr %31, i32 0, i32 0
  %33 = getelementptr inbounds nuw %struct.object, ptr %32, i32 0, i32 1
  %34 = call i32 @add_object_entry(ptr noundef %33, i32 noundef 4, ptr noundef null, i32 noundef 0)
  %35 = load ptr, ptr %3, align 8, !tbaa !285
  %36 = getelementptr inbounds nuw %struct.tag, ptr %35, i32 0, i32 1
  %37 = load ptr, ptr %36, align 8, !tbaa !287
  %38 = load i32, ptr %37, align 4
  %39 = lshr i32 %38, 1
  %40 = and i32 %39, 7
  %41 = icmp ne i32 %40, 4
  br i1 %41, label %42, label %43

42:                                               ; preds = %30
  store i32 1, ptr %4, align 4
  br label %47

43:                                               ; preds = %30
  %44 = load ptr, ptr %3, align 8, !tbaa !285
  %45 = getelementptr inbounds nuw %struct.tag, ptr %44, i32 0, i32 1
  %46 = load ptr, ptr %45, align 8, !tbaa !287
  store ptr %46, ptr %3, align 8, !tbaa !285
  br label %13

47:                                               ; preds = %42, %8
  call void @llvm.lifetime.end.p0(i64 8, ptr %3) #11
  ret void
}

; Function Attrs: nounwind uwtable
define internal i32 @obj_is_packed(ptr noundef %0) #0 {
  %2 = alloca ptr, align 8
  store ptr %0, ptr %2, align 8, !tbaa !190
  %3 = load ptr, ptr %2, align 8, !tbaa !190
  %4 = call ptr @packlist_find(ptr noundef @to_pack, ptr noundef %3)
  %5 = icmp ne ptr %4, null
  br i1 %5, label %17, label %6

6:                                                ; preds = %1
  %7 = load ptr, ptr @reuse_packfile_bitmap, align 8, !tbaa !243
  %8 = icmp ne ptr %7, null
  br i1 %8, label %9, label %15

9:                                                ; preds = %6
  %10 = load ptr, ptr @bitmap_git, align 8, !tbaa !245
  %11 = load ptr, ptr @reuse_packfile_bitmap, align 8, !tbaa !243
  %12 = load ptr, ptr %2, align 8, !tbaa !190
  %13 = call i32 @bitmap_walk_contains(ptr noundef %10, ptr noundef %11, ptr noundef %12)
  %14 = icmp ne i32 %13, 0
  br label %15

15:                                               ; preds = %9, %6
  %16 = phi i1 [ false, %6 ], [ %14, %9 ]
  br label %17

17:                                               ; preds = %15, %1
  %18 = phi i1 [ true, %1 ], [ %16, %15 ]
  %19 = zext i1 %18 to i32
  ret i32 %19
}

; Function Attrs: nounwind uwtable
define internal i32 @add_ref_tag(ptr noundef %0, ptr noundef %1, ptr noundef %2, i32 noundef %3, ptr noundef %4) #0 {
  %6 = alloca ptr, align 8
  %7 = alloca ptr, align 8
  %8 = alloca ptr, align 8
  %9 = alloca i32, align 4
  %10 = alloca ptr, align 8
  %11 = alloca %struct.object_id, align 4
  store ptr %0, ptr %6, align 8, !tbaa !24
  store ptr %1, ptr %7, align 8, !tbaa !24
  store ptr %2, ptr %8, align 8, !tbaa !190
  store i32 %3, ptr %9, align 4, !tbaa !27
  store ptr %4, ptr %10, align 8, !tbaa !134
  call void @llvm.lifetime.start.p0(i64 36, ptr %11) #11
  %12 = load ptr, ptr @the_repository, align 8, !tbaa !11
  %13 = load ptr, ptr %8, align 8, !tbaa !190
  %14 = call i32 @peel_iterated_oid(ptr noundef %12, ptr noundef %13, ptr noundef %11)
  %15 = icmp ne i32 %14, 0
  br i1 %15, label %21, label %16

16:                                               ; preds = %5
  %17 = call i32 @obj_is_packed(ptr noundef %11)
  %18 = icmp ne i32 %17, 0
  br i1 %18, label %19, label %21

19:                                               ; preds = %16
  %20 = load ptr, ptr %8, align 8, !tbaa !190
  call void @add_tag_chain(ptr noundef %20)
  br label %21

21:                                               ; preds = %19, %16, %5
  call void @llvm.lifetime.end.p0(i64 36, ptr %11) #11
  ret i32 0
}