; Function Attrs: nounwind uwtable
define internal noundef i32 @add_ref_tag(ptr readnone captures(none) %0, ptr readnone captures(none) %1, ptr noundef %2, i32 %3, ptr readnone captures(none) %4) #0 {
  %6 = alloca %struct.object_id, align 4
  call void @llvm.lifetime.start.p0(i64 36, ptr nonnull %6) #25
  %7 = load ptr, ptr @the_repository, align 8, !tbaa !4
  %8 = call i32 @peel_iterated_oid(ptr noundef %7, ptr noundef %2, ptr noundef nonnull %6) #25
  %.not = icmp eq i32 %8, 0
  br i1 %.not, label %9, label %add_tag_chain.exit

9:                                                ; preds = %5
  %10 = call ptr @packlist_find(ptr noundef nonnull @to_pack, ptr noundef nonnull %6) #25
  %.not.i = icmp eq ptr %10, null
  br i1 %.not.i, label %11, label %obj_is_packed.exit.thread4

11:                                               ; preds = %9
  %12 = load ptr, ptr @reuse_packfile_bitmap, align 8, !tbaa !141
  %.not2.i = icmp eq ptr %12, null
  br i1 %.not2.i, label %add_tag_chain.exit, label %obj_is_packed.exit

obj_is_packed.exit:                               ; preds = %11
  %13 = load ptr, ptr @bitmap_git, align 8, !tbaa !137
  %14 = call i32 @bitmap_walk_contains(ptr noundef %13, ptr noundef nonnull %12, ptr noundef nonnull %6) #25
  %.not6 = icmp eq i32 %14, 0
  br i1 %.not6, label %add_tag_chain.exit, label %obj_is_packed.exit.thread4

obj_is_packed.exit.thread4:                       ; preds = %9, %obj_is_packed.exit
  %15 = call ptr @packlist_find(ptr noundef nonnull @to_pack, ptr noundef %2) #25
  %.not.i.i = icmp eq ptr %15, null
  br i1 %.not.i.i, label %16, label %add_tag_chain.exit

16:                                               ; preds = %obj_is_packed.exit.thread4
  %17 = load ptr, ptr @reuse_packfile_bitmap, align 8, !tbaa !141
  %.not2.i.i = icmp eq ptr %17, null
  br i1 %.not2.i.i, label %obj_is_packed.exit.thread.i, label %obj_is_packed.exit.i

obj_is_packed.exit.i:                             ; preds = %16
  %18 = load ptr, ptr @bitmap_git, align 8, !tbaa !137
  %19 = call i32 @bitmap_walk_contains(ptr noundef %18, ptr noundef nonnull %17, ptr noundef %2) #25
  %.not16.i = icmp eq i32 %19, 0
  br i1 %.not16.i, label %obj_is_packed.exit.thread.i, label %add_tag_chain.exit

obj_is_packed.exit.thread.i:                      ; preds = %obj_is_packed.exit.i, %16
  %20 = load ptr, ptr @the_repository, align 8, !tbaa !4
  %21 = call ptr @lookup_tag(ptr noundef %20, ptr noundef %2) #25
  br label %22

22:                                               ; preds = %31, %obj_is_packed.exit.thread.i
  %.0.i = phi ptr [ %21, %obj_is_packed.exit.thread.i ], [ %33, %31 ]
  %.not9.i = icmp eq ptr %.0.i, null
  br i1 %.not9.i, label %28, label %23

23:                                               ; preds = %22
  %24 = call i32 @parse_tag(ptr noundef nonnull %.0.i) #25
  %.not10.i = icmp eq i32 %24, 0
  br i1 %.not10.i, label %25, label %28

25:                                               ; preds = %23
  %26 = getelementptr inbounds nuw i8, ptr %.0.i, i64 40
  %27 = load ptr, ptr %26, align 8, !tbaa !281
  %.not11.i = icmp eq ptr %27, null
  br i1 %.not11.i, label %28, label %31

28:                                               ; preds = %25, %23, %22
  %29 = call fastcc ptr @_(ptr noundef nonnull @.str.205)
  %30 = call ptr @oid_to_hex(ptr noundef %2) #25
  call void (ptr, ...) @die(ptr noundef %29, ptr noundef %30) #26
  unreachable

31:                                               ; preds = %25
  %32 = getelementptr inbounds nuw i8, ptr %.0.i, i64 4
  call fastcc void @add_object_entry(ptr noundef nonnull %32, i32 noundef 4, ptr noundef null, i32 noundef 0)
  %33 = load ptr, ptr %26, align 8, !tbaa !281
  %34 = load i32, ptr %33, align 4
  %35 = and i32 %34, 14
  %.not12.i = icmp eq i32 %35, 8
  br i1 %.not12.i, label %22, label %add_tag_chain.exit

add_tag_chain.exit:                               ; preds = %31, %11, %obj_is_packed.exit.i, %obj_is_packed.exit.thread4, %obj_is_packed.exit, %5
  call void @llvm.lifetime.end.p0(i64 36, ptr nonnull %6) #25
  ret i32 0
}